target datalayout = "e-m:e-p270:32:32-p271:32:32-p272:64:64-i64:64-i128:128-f80:128-n8:16:32:64-S128"
target triple = "x86_64-pc-linux-gnu"

%struct.ltlNode_t = type { i32, ptr, ptr, ptr, ptr }
%struct.Abc_Ntk_t_ = type { i32, i32, ptr, ptr, ptr, ptr, ptr, ptr, ptr, ptr, ptr, ptr, ptr, [11 x i32], i32, i32, i32, i32, ptr, i32, ptr, ptr, i32, i32, i32, double, i32, %struct.Vec_Int_t_, ptr, ptr, ptr, ptr, ptr, float, i32, ptr, ptr, ptr, ptr, ptr, ptr, ptr, ptr, ptr, ptr, ptr, ptr, ptr, ptr, ptr, ptr, ptr, ptr, ptr, ptr, ptr, ptr }
%struct.Vec_Int_t_ = type { i32, i32, ptr }
%struct.Vec_Ptr_t_ = type { i32, i32, ptr }
%struct.Aig_Obj_t_ = type { %union.anon, ptr, ptr, i64, i32, i32, %union.anon.0 }
%union.anon = type { ptr }
%union.anon.0 = type { ptr }
%struct.Aig_Man_t_ = type { ptr, ptr, ptr, ptr, ptr, ptr, ptr, %struct.Aig_Obj_t_, i32, i32, i32, i32, i32, i32, [7 x i32], i32, ptr, i32, ptr, i32, ptr, i32, i32, i32, ptr, i32, i32, i32, i32, i32, ptr, ptr, i32, ptr, ptr, i32, ptr, ptr, i32, i32, i32, ptr, ptr, ptr, ptr, ptr, ptr, ptr, ptr, ptr, ptr, ptr, ptr, ptr, ptr, i32, ptr, ptr, ptr, ptr, i32, i64, i64, i64, ptr, ptr }

@.str.20 = private unnamed_addr constant [5 x i8] c"true\00", align 1
@.str.21 = private unnamed_addr constant [6 x i8] c"false\00", align 1
@.str.23 = private unnamed_addr constant [49 x i8] c"\0AUNSUPPORTED LTL NODE TYPE:: Aborting execution\0A\00", align 1

; Function Attrs: inlinehint nounwind uwtable
define internal i32 @Aig_IsComplement(ptr noundef %0) #3 {
  %2 = alloca ptr, align 8
  store ptr %0, ptr %2, align 8, !tbaa !68
  %3 = load ptr, ptr %2, align 8, !tbaa !68
  %4 = ptrtoint ptr %3 to i64
  %5 = and i64 %4, 1
  %6 = trunc i64 %5 to i32
  ret i32 %6
}

; Function Attrs: inlinehint nounwind uwtable
define internal ptr @Vec_PtrEntry(ptr noundef %0, i32 noundef %1) #3 {
  %3 = alloca ptr, align 8
  %4 = alloca i32, align 4
  store ptr %0, ptr %3, align 8, !tbaa !48
  store i32 %1, ptr %4, align 4, !tbaa !3
  %5 = load ptr, ptr %3, align 8, !tbaa !48
  %6 = getelementptr inbounds nuw %struct.Vec_Ptr_t_, ptr %5, i32 0, i32 2
  %7 = load ptr, ptr %6, align 8, !tbaa !49
  %8 = load i32, ptr %4, align 4, !tbaa !3
  %9 = sext i32 %8 to i64
  %10 = getelementptr inbounds ptr, ptr %7, i64 %9
  %11 = load ptr, ptr %10, align 8, !tbaa !53
  ret ptr %11
}

; Function Attrs: inlinehint nounwind uwtable
define internal i32 @Vec_PtrSize(ptr noundef %0) #3 {
  %2 = alloca ptr, align 8
  store ptr %0, ptr %2, align 8, !tbaa !48
  %3 = load ptr, ptr %2, align 8, !tbaa !48
  %4 = getelementptr inbounds nuw %struct.Vec_Ptr_t_, ptr %3, i32 0, i32 1
  %5 = load i32, ptr %4, align 4, !tbaa !51
  ret i32 %5
}

; Function Attrs: inlinehint nounwind uwtable
define internal ptr @Aig_NotCond(ptr noundef %0, i32 noundef %1) #3 {
  %3 = alloca ptr, align 8
  %4 = alloca i32, align 4
  store ptr %0, ptr %3, align 8, !tbaa !68
  store i32 %1, ptr %4, align 4, !tbaa !3
  %5 = load ptr, ptr %3, align 8, !tbaa !68
  %6 = ptrtoint ptr %5 to i64
  %7 = load i32, ptr %4, align 4, !tbaa !3
  %8 = sext i32 %7 to i64
  %9 = xor i64 %6, %8
  %10 = inttoptr i64 %9 to ptr
  ret ptr %10
}

; Function Attrs: inlinehint nounwind uwtable
define internal i32 @Aig_ObjFaninC0(ptr noundef %0) #3 {
  %2 = alloca ptr, align 8
  store ptr %0, ptr %2, align 8, !tbaa !68
  %3 = load ptr, ptr %2, align 8, !tbaa !68
  %4 = getelementptr inbounds nuw %struct.Aig_Obj_t_, ptr %3, i32 0, i32 1
  %5 = load ptr, ptr %4, align 8, !tbaa !81
  %6 = call i32 @Aig_IsComplement(ptr noundef %5)
  ret i32 %6
}

; Function Attrs: inlinehint nounwind uwtable
define internal ptr @Aig_Regular(ptr noundef %0) #3 {
  %2 = alloca ptr, align 8
  store ptr %0, ptr %2, align 8, !tbaa !68
  %3 = load ptr, ptr %2, align 8, !tbaa !68
  %4 = ptrtoint ptr %3 to i64
  %5 = and i64 %4, -2
  %6 = inttoptr i64 %5 to ptr
  ret ptr %6
}

; Function Attrs: inlinehint nounwind uwtable
define internal ptr @Aig_ObjChild0(ptr noundef %0) #3 {
  %2 = alloca ptr, align 8
  store ptr %0, ptr %2, align 8, !tbaa !68
  %3 = load ptr, ptr %2, align 8, !tbaa !68
  %4 = getelementptr inbounds nuw %struct.Aig_Obj_t_, ptr %3, i32 0, i32 1
  %5 = load ptr, ptr %4, align 8, !tbaa !81
  ret ptr %5
}

; Function Attrs: inlinehint nounwind uwtable
define internal ptr @Aig_ManCo(ptr noundef %0, i32 noundef %1) #3 {
  %3 = alloca ptr, align 8
  %4 = alloca i32, align 4
  store ptr %0, ptr %3, align 8, !tbaa !59
  store i32 %1, ptr %4, align 4, !tbaa !3
  %5 = load ptr, ptr %3, align 8, !tbaa !59
  %6 = getelementptr inbounds nuw %struct.Aig_Man_t_, ptr %5, i32 0, i32 3
  %7 = load ptr, ptr %6, align 8, !tbaa !80
  %8 = load i32, ptr %4, align 4, !tbaa !3
  %9 = call ptr @Vec_PtrEntry(ptr noundef %7, i32 noundef %8)
  ret ptr %9
}

; Function Attrs: inlinehint nounwind uwtable
define internal ptr @Abc_NtkPo(ptr noundef %0, i32 noundef %1) #3 {
  %3 = alloca ptr, align 8
  %4 = alloca i32, align 4
  store ptr %0, ptr %3, align 8, !tbaa !20
  store i32 %1, ptr %4, align 4, !tbaa !3
  %5 = load ptr, ptr %3, align 8, !tbaa !20
  %6 = getelementptr inbounds nuw %struct.Abc_Ntk_t_, ptr %5, i32 0, i32 7
  %7 = load ptr, ptr %6, align 8, !tbaa !72
  %8 = load i32, ptr %4, align 4, !tbaa !3
  %9 = call ptr @Vec_PtrEntry(ptr noundef %7, i32 noundef %8)
  ret ptr %9
}

; Function Attrs: inlinehint nounwind uwtable
define internal i32 @Abc_NtkPoNum(ptr noundef %0) #3 {
  %2 = alloca ptr, align 8
  store ptr %0, ptr %2, align 8, !tbaa !20
  %3 = load ptr, ptr %2, align 8, !tbaa !20
  %4 = getelementptr inbounds nuw %struct.Abc_Ntk_t_, ptr %3, i32 0, i32 7
  %5 = load ptr, ptr %4, align 8, !tbaa !72
  %6 = call i32 @Vec_PtrSize(ptr noundef %5)
  ret i32 %6
}

; Function Attrs: inlinehint nounwind uwtable
define internal ptr @Aig_Not(ptr noundef %0) #3 {
  %2 = alloca ptr, align 8
  store ptr %0, ptr %2, align 8, !tbaa !68
  %3 = load ptr, ptr %2, align 8, !tbaa !68
  %4 = ptrtoint ptr %3 to i64
  %5 = xor i64 %4, 1
  %6 = inttoptr i64 %5 to ptr
  ret ptr %6
}

; Function Attrs: inlinehint nounwind uwtable
define internal ptr @Aig_ManConst1(ptr noundef %0) #3 {
  %2 = alloca ptr, align 8
  store ptr %0, ptr %2, align 8, !tbaa !59
  %3 = load ptr, ptr %2, align 8, !tbaa !59
  %4 = getelementptr inbounds nuw %struct.Aig_Man_t_, ptr %3, i32 0, i32 6
  %5 = load ptr, ptr %4, align 8, !tbaa !74
  ret ptr %5
}

; Function Attrs: nounwind uwtable
define i32 @checkBooleanConstant(ptr noundef %0) #0 {
  %2 = alloca i32, align 4
  %3 = alloca ptr, align 8
  store ptr %0, ptr %3, align 8, !tbaa !45
  %4 = load ptr, ptr %3, align 8, !tbaa !45
  %5 = call i32 @strcmp(ptr noundef %4, ptr noundef @.str.20) #11
  %6 = icmp eq i32 %5, 0
  br i1 %6, label %7, label %8

7:                                                ; preds = %1
  store i32 1, ptr %2, align 4
  br label %14

8:                                                ; preds = %1
  %9 = load ptr, ptr %3, align 8, !tbaa !45
  %10 = call i32 @strcmp(ptr noundef %9, ptr noundef @.str.21) #11
  %11 = icmp eq i32 %10, 0
  br i1 %11, label %12, label %13

12:                                               ; preds = %8
  store i32 0, ptr %2, align 4
  br label %14

13:                                               ; preds = %8
  store i32 -1, ptr %2, align 4
  br label %14

14:                                               ; preds = %13, %12, %7
  %15 = load i32, ptr %2, align 4
  ret i32 %15
}

; Function Attrs: nounwind uwtable
define void @populateBoolWithAigNodePtr(ptr noundef %0, ptr noundef %1, ptr noundef %2, ptr noundef %3) #0 {
  %5 = alloca ptr, align 8
  %6 = alloca ptr, align 8
  %7 = alloca ptr, align 8
  %8 = alloca ptr, align 8
  %9 = alloca ptr, align 8
  %10 = alloca ptr, align 8
  %11 = alloca i32, align 4
  %12 = alloca ptr, align 8
  %13 = alloca ptr, align 8
  %14 = alloca i32, align 4
  store ptr %0, ptr %5, align 8, !tbaa !20
  store ptr %1, ptr %6, align 8, !tbaa !59
  store ptr %2, ptr %7, align 8, !tbaa !59
  store ptr %3, ptr %8, align 8, !tbaa !7
  call void @llvm.lifetime.start.p0(i64 8, ptr %9) #9
  call void @llvm.lifetime.start.p0(i64 8, ptr %10) #9
  call void @llvm.lifetime.start.p0(i64 4, ptr %11) #9
  call void @llvm.lifetime.start.p0(i64 8, ptr %12) #9
  call void @llvm.lifetime.start.p0(i64 8, ptr %13) #9
  %15 = load ptr, ptr %8, align 8, !tbaa !7
  %16 = getelementptr inbounds nuw %struct.ltlNode_t, ptr %15, i32 0, i32 0
  %17 = load i32, ptr %16, align 8, !tbaa !10
  switch i32 %17, label %100 [
    i32 8, label %18
    i32 0, label %80
    i32 1, label %80
    i32 3, label %80
    i32 7, label %80
    i32 2, label %93
    i32 6, label %93
    i32 4, label %93
    i32 5, label %93
  ]

18:                                               ; preds = %4
  %19 = load ptr, ptr %8, align 8, !tbaa !7
  %20 = getelementptr inbounds nuw %struct.ltlNode_t, ptr %19, i32 0, i32 1
  %21 = load ptr, ptr %20, align 8, !tbaa !15
  store ptr %21, ptr %9, align 8, !tbaa !45
  %22 = load ptr, ptr %9, align 8, !tbaa !45
  %23 = call i32 @checkBooleanConstant(ptr noundef %22)
  %24 = icmp eq i32 %23, 1
  br i1 %24, label %25, label %30

25:                                               ; preds = %18
  %26 = load ptr, ptr %7, align 8, !tbaa !59
  %27 = call ptr @Aig_ManConst1(ptr noundef %26)
  %28 = load ptr, ptr %8, align 8, !tbaa !7
  %29 = getelementptr inbounds nuw %struct.ltlNode_t, ptr %28, i32 0, i32 2
  store ptr %27, ptr %29, align 8, !tbaa !14
  store i32 1, ptr %14, align 4
  br label %102

30:                                               ; preds = %18
  %31 = load ptr, ptr %9, align 8, !tbaa !45
  %32 = call i32 @checkBooleanConstant(ptr noundef %31)
  %33 = icmp eq i32 %32, 0
  br i1 %33, label %34, label %42

34:                                               ; preds = %30
  %35 = load ptr, ptr %7, align 8, !tbaa !59
  %36 = call ptr @Aig_ManConst1(ptr noundef %35)
  %37 = load ptr, ptr %8, align 8, !tbaa !7
  %38 = getelementptr inbounds nuw %struct.ltlNode_t, ptr %37, i32 0, i32 2
  store ptr %36, ptr %38, align 8, !tbaa !14
  %39 = call ptr @Aig_Not(ptr noundef %36)
  %40 = load ptr, ptr %8, align 8, !tbaa !7
  %41 = getelementptr inbounds nuw %struct.ltlNode_t, ptr %40, i32 0, i32 2
  store ptr %39, ptr %41, align 8, !tbaa !14
  store i32 1, ptr %14, align 4
  br label %102

42:                                               ; preds = %30
  store i32 0, ptr %11, align 4, !tbaa !3
  br label %43

43:                                               ; preds = %76, %42
  %44 = load i32, ptr %11, align 4, !tbaa !3
  %45 = load ptr, ptr %5, align 8, !tbaa !20
  %46 = call i32 @Abc_NtkPoNum(ptr noundef %45)
  %47 = icmp slt i32 %44, %46
  br i1 %47, label %48, label %52

48:                                               ; preds = %43
  %49 = load ptr, ptr %5, align 8, !tbaa !20
  %50 = load i32, ptr %11, align 4, !tbaa !3
  %51 = call ptr @Abc_NtkPo(ptr noundef %49, i32 noundef %50)
  store ptr %51, ptr %10, align 8, !tbaa !69
  br label %52

52:                                               ; preds = %48, %43
  %53 = phi i1 [ false, %43 ], [ true, %48 ]
  br i1 %53, label %54, label %79

54:                                               ; preds = %52
  %55 = load ptr, ptr %10, align 8, !tbaa !69
  %56 = call ptr @Abc_ObjName(ptr noundef %55)
  %57 = load ptr, ptr %9, align 8, !tbaa !45
  %58 = call i32 @strcmp(ptr noundef %56, ptr noundef %57) #11
  %59 = icmp eq i32 %58, 0
  br i1 %59, label %60, label %75

60:                                               ; preds = %54
  %61 = load ptr, ptr %6, align 8, !tbaa !59
  %62 = load i32, ptr %11, align 4, !tbaa !3
  %63 = call ptr @Aig_ManCo(ptr noundef %61, i32 noundef %62)
  store ptr %63, ptr %12, align 8, !tbaa !68
  %64 = load ptr, ptr %12, align 8, !tbaa !68
  %65 = call ptr @Aig_ObjChild0(ptr noundef %64)
  %66 = call ptr @Aig_Regular(ptr noundef %65)
  %67 = getelementptr inbounds nuw %struct.Aig_Obj_t_, ptr %66, i32 0, i32 6
  %68 = load ptr, ptr %67, align 8, !tbaa !55
  %69 = load ptr, ptr %12, align 8, !tbaa !68
  %70 = call i32 @Aig_ObjFaninC0(ptr noundef %69)
  %71 = call ptr @Aig_NotCond(ptr noundef %68, i32 noundef %70)
  store ptr %71, ptr %13, align 8, !tbaa !68
  %72 = load ptr, ptr %13, align 8, !tbaa !68
  %73 = load ptr, ptr %8, align 8, !tbaa !7
  %74 = getelementptr inbounds nuw %struct.ltlNode_t, ptr %73, i32 0, i32 2
  store ptr %72, ptr %74, align 8, !tbaa !14
  store i32 1, ptr %14, align 4
  br label %102

75:                                               ; preds = %54
  br label %76

76:                                               ; preds = %75
  %77 = load i32, ptr %11, align 4, !tbaa !3
  %78 = add nsw i32 %77, 1
  store i32 %78, ptr %11, align 4, !tbaa !3
  br label %43, !llvm.loop !73

79:                                               ; preds = %52
  br label %80

80:                                               ; preds = %4, %4, %4, %4, %79
  %81 = load ptr, ptr %5, align 8, !tbaa !20
  %82 = load ptr, ptr %6, align 8, !tbaa !59
  %83 = load ptr, ptr %7, align 8, !tbaa !59
  %84 = load ptr, ptr %8, align 8, !tbaa !7
  %85 = getelementptr inbounds nuw %struct.ltlNode_t, ptr %84, i32 0, i32 3
  %86 = load ptr, ptr %85, align 8, !tbaa !16
  call void @populateBoolWithAigNodePtr(ptr noundef %81, ptr noundef %82, ptr noundef %83, ptr noundef %86)
  %87 = load ptr, ptr %5, align 8, !tbaa !20
  %88 = load ptr, ptr %6, align 8, !tbaa !59
  %89 = load ptr, ptr %7, align 8, !tbaa !59
  %90 = load ptr, ptr %8, align 8, !tbaa !7
  %91 = getelementptr inbounds nuw %struct.ltlNode_t, ptr %90, i32 0, i32 4
  %92 = load ptr, ptr %91, align 8, !tbaa !17
  call void @populateBoolWithAigNodePtr(ptr noundef %87, ptr noundef %88, ptr noundef %89, ptr noundef %92)
  store i32 1, ptr %14, align 4
  br label %102

93:                                               ; preds = %4, %4, %4, %4
  %94 = load ptr, ptr %5, align 8, !tbaa !20
  %95 = load ptr, ptr %6, align 8, !tbaa !59
  %96 = load ptr, ptr %7, align 8, !tbaa !59
  %97 = load ptr, ptr %8, align 8, !tbaa !7
  %98 = getelementptr inbounds nuw %struct.ltlNode_t, ptr %97, i32 0, i32 3
  %99 = load ptr, ptr %98, align 8, !tbaa !16
  call void @populateBoolWithAigNodePtr(ptr noundef %94, ptr noundef %95, ptr noundef %96, ptr noundef %99)
  store i32 1, ptr %14, align 4
  br label %102

100:                                              ; preds = %4
  %101 = call i32 (ptr, ...) @printf(ptr noundef @.str.23)
  call void @exit(i32 noundef 0) #12
  unreachable

102:                                              ; preds = %93, %80, %60, %34, %25
  call void @llvm.lifetime.end.p0(i64 8, ptr %13) #9
  call void @llvm.lifetime.end.p0(i64 8, ptr %12) #9
  call void @llvm.lifetime.end.p0(i64 4, ptr %11) #9
  call void @llvm.lifetime.end.p0(i64 8, ptr %10) #9
  call void @llvm.lifetime.end.p0(i64 8, ptr %9) #9
  ret void
}