; Function Attrs: nounwind uwtable
define void @populateBoolWithAigNodePtr(ptr noundef readonly captures(none) %0, ptr noundef readonly captures(none) %1, ptr noundef readonly captures(none) %2, ptr noundef captures(none) %3) local_unnamed_addr #3 {
  %5 = getelementptr i8, ptr %0, i64 48
  br label %tailrecurse

tailrecurse:                                      ; preds = %tailrecurse.backedge, %4
  %.tr45 = phi ptr [ %3, %4 ], [ %.tr45.be, %tailrecurse.backedge ]
  %6 = load i32, ptr %.tr45, align 8, !tbaa !3
  switch i32 %6, label %52 [
    i32 8, label %7
    i32 0, label %.critedge
    i32 1, label %.critedge
    i32 3, label %.critedge
    i32 7, label %.critedge
    i32 2, label %tailrecurse.backedge
    i32 6, label %tailrecurse.backedge
    i32 4, label %tailrecurse.backedge
    i32 5, label %tailrecurse.backedge
  ]

7:                                                ; preds = %tailrecurse
  %8 = getelementptr inbounds nuw i8, ptr %.tr45, i64 8
  %9 = load ptr, ptr %8, align 8, !tbaa !47
  %10 = tail call i32 @strcmp(ptr noundef nonnull readonly dereferenceable(1) %9, ptr noundef nonnull dereferenceable(5) @.str.20) #24
  %11 = icmp eq i32 %10, 0
  br i1 %11, label %checkBooleanConstant.exit.thread, label %checkBooleanConstant.exit

checkBooleanConstant.exit:                        ; preds = %7
  %12 = tail call i32 @strcmp(ptr noundef nonnull readonly dereferenceable(1) %9, ptr noundef nonnull dereferenceable(6) @.str.21) #24
  %.not = icmp eq i32 %12, 0
  br i1 %.not, label %17, label %.preheader

.preheader:                                       ; preds = %checkBooleanConstant.exit
  %.val49 = load ptr, ptr %5, align 8, !tbaa !57
  %13 = getelementptr i8, ptr %.val49, i64 4
  %.val.val50 = load i32, ptr %13, align 4, !tbaa !38
  %14 = icmp sgt i32 %.val.val50, 0
  br i1 %14, label %.lr.ph, label %.critedge

checkBooleanConstant.exit.thread:                 ; preds = %7
  %15 = getelementptr i8, ptr %2, i64 48
  %.val34 = load ptr, ptr %15, align 8, !tbaa !59
  %16 = getelementptr inbounds nuw i8, ptr %.tr45, i64 16
  store ptr %.val34, ptr %16, align 8, !tbaa !51
  br label %53

17:                                               ; preds = %checkBooleanConstant.exit
  %18 = getelementptr i8, ptr %2, i64 48
  %.val35 = load ptr, ptr %18, align 8, !tbaa !59
  %19 = getelementptr inbounds nuw i8, ptr %.tr45, i64 16
  %20 = ptrtoint ptr %.val35 to i64
  %21 = xor i64 %20, 1
  %22 = inttoptr i64 %21 to ptr
  store ptr %22, ptr %19, align 8, !tbaa !51
  br label %53

23:                                               ; preds = %.lr.ph
  %indvars.iv.next = add nuw nsw i64 %indvars.iv, 1
  %.val = load ptr, ptr %5, align 8, !tbaa !57
  %24 = getelementptr i8, ptr %.val, i64 4
  %.val.val = load i32, ptr %24, align 4, !tbaa !38
  %25 = sext i32 %.val.val to i64
  %26 = icmp slt i64 %indvars.iv.next, %25
  br i1 %26, label %.lr.ph, label %.critedge, !llvm.loop !67

.lr.ph:                                           ; preds = %.preheader, %23
  %indvars.iv = phi i64 [ %indvars.iv.next, %23 ], [ 0, %.preheader ]
  %.val52 = phi ptr [ %.val, %23 ], [ %.val49, %.preheader ]
  %27 = getelementptr i8, ptr %.val52, i64 8
  %.val33.val = load ptr, ptr %27, align 8, !tbaa !27
  %28 = getelementptr inbounds nuw ptr, ptr %.val33.val, i64 %indvars.iv
  %29 = load ptr, ptr %28, align 8, !tbaa !40
  %30 = tail call ptr @Abc_ObjName(ptr noundef %29) #23
  %31 = tail call i32 @strcmp(ptr noundef nonnull dereferenceable(1) %30, ptr noundef nonnull dereferenceable(1) %9) #24
  %32 = icmp eq i32 %31, 0
  br i1 %32, label %33, label %23

33:                                               ; preds = %.lr.ph
  %34 = getelementptr i8, ptr %1, i64 24
  %.val36 = load ptr, ptr %34, align 8, !tbaa !68
  %35 = getelementptr i8, ptr %.val36, i64 8
  %.val36.val = load ptr, ptr %35, align 8, !tbaa !27
  %36 = getelementptr inbounds nuw ptr, ptr %.val36.val, i64 %indvars.iv
  %37 = load ptr, ptr %36, align 8, !tbaa !40
  %38 = getelementptr i8, ptr %37, i64 8
  %.val37 = load ptr, ptr %38, align 8, !tbaa !69
  %39 = ptrtoint ptr %.val37 to i64
  %40 = and i64 %39, -2
  %41 = inttoptr i64 %40 to ptr
  %42 = getelementptr inbounds nuw i8, ptr %41, i64 40
  %43 = load ptr, ptr %42, align 8, !tbaa !43
  %44 = and i64 %39, 1
  %45 = ptrtoint ptr %43 to i64
  %46 = xor i64 %44, %45
  %47 = inttoptr i64 %46 to ptr
  %48 = getelementptr inbounds nuw i8, ptr %.tr45, i64 16
  store ptr %47, ptr %48, align 8, !tbaa !51
  br label %53

.critedge:                                        ; preds = %23, %.preheader, %tailrecurse, %tailrecurse, %tailrecurse, %tailrecurse
  %49 = getelementptr inbounds nuw i8, ptr %.tr45, i64 24
  %50 = load ptr, ptr %49, align 8, !tbaa !46
  tail call void @populateBoolWithAigNodePtr(ptr noundef %0, ptr noundef %1, ptr noundef %2, ptr noundef %50)
  br label %tailrecurse.backedge

tailrecurse.backedge:                             ; preds = %tailrecurse, %tailrecurse, %tailrecurse, %tailrecurse, %.critedge
  %.sink = phi i64 [ 32, %.critedge ], [ 24, %tailrecurse ], [ 24, %tailrecurse ], [ 24, %tailrecurse ], [ 24, %tailrecurse ]
  %51 = getelementptr inbounds nuw i8, ptr %.tr45, i64 %.sink
  %.tr45.be = load ptr, ptr %51, align 8, !tbaa !50
  br label %tailrecurse

52:                                               ; preds = %tailrecurse
  %puts = tail call i32 @puts(ptr nonnull dereferenceable(1) @str.9)
  tail call void @exit(i32 noundef 0) #26
  unreachable

53:                                               ; preds = %33, %17, %checkBooleanConstant.exit.thread
  ret void
}